target datalayout = "e-m:e-p270:32:32-p271:32:32-p272:64:64-i64:64-i128:128-f80:128-n8:16:32:64-S128"
target triple = "x86_64-pc-linux-gnu"

%struct.If_Obj_t_ = type { i32, i32, i32, i32, i32, i32, ptr, ptr, ptr, float, float, float, %union.anon, ptr, %struct.If_Cut_t_ }
%union.anon = type { ptr }
%struct.If_Cut_t_ = type <{ float, float, float, float, i32, i32, i32, i64, [0 x i32] }>
%struct.Vec_Ptr_t_ = type { i32, i32, ptr }
%struct.If_Man_t_ = type { ptr, ptr, ptr, ptr, ptr, ptr, ptr, ptr, [5 x i32], i32, float, float, float, float, i32, float, i32, i32, [4 x ptr], ptr, i32, i32, i32, ptr, [3 x [32 x i32]], i32, i32, i32, ptr, ptr, ptr, ptr, ptr, ptr, ptr, i32, i32, i32, [16 x i32], i32, i32, i32, i32, ptr, ptr, ptr, ptr, ptr, i32, i32, [32 x i32], [32 x i32], i32, i32, i32, i32, ptr, [16 x ptr], [16 x ptr], [16 x ptr], [16 x ptr], [16 x ptr], [16 x ptr], [16 x ptr], ptr, ptr, ptr, ptr, [32 x i8], i32, i32, i32, [6 x i64], [2 x i32], [2 x i32], ptr, [15 x i32], ptr, ptr, ptr, [16 x i32], ptr, ptr, ptr, ptr, [2 x i32], [2 x i32], [2 x ptr], ptr }
%struct.Vec_Int_t_ = type { i32, i32, ptr }

; Function Attrs: inlinehint nounwind uwtable
define internal ptr @Vec_PtrEntry(ptr noundef %0, i32 noundef %1) #2 {
  %3 = alloca ptr, align 8
  %4 = alloca i32, align 4
  store ptr %0, ptr %3, align 8, !tbaa !10
  store i32 %1, ptr %4, align 4, !tbaa !23
  %5 = load ptr, ptr %3, align 8, !tbaa !10
  %6 = getelementptr inbounds nuw %struct.Vec_Ptr_t_, ptr %5, i32 0, i32 2
  %7 = load ptr, ptr %6, align 8, !tbaa !28
  %8 = load i32, ptr %4, align 4, !tbaa !23
  %9 = sext i32 %8 to i64
  %10 = getelementptr inbounds ptr, ptr %7, i64 %9
  %11 = load ptr, ptr %10, align 8, !tbaa !24
  ret ptr %11
}

; Function Attrs: inlinehint nounwind uwtable
define internal i32 @Vec_IntEntry(ptr noundef %0, i32 noundef %1) #2 {
  %3 = alloca ptr, align 8
  %4 = alloca i32, align 4
  store ptr %0, ptr %3, align 8, !tbaa !46
  store i32 %1, ptr %4, align 4, !tbaa !23
  %5 = load ptr, ptr %3, align 8, !tbaa !46
  %6 = getelementptr inbounds nuw %struct.Vec_Int_t_, ptr %5, i32 0, i32 2
  %7 = load ptr, ptr %6, align 8, !tbaa !52
  %8 = load i32, ptr %4, align 4, !tbaa !23
  %9 = sext i32 %8 to i64
  %10 = getelementptr inbounds i32, ptr %7, i64 %9
  %11 = load i32, ptr %10, align 4, !tbaa !23
  ret i32 %11
}

; Function Attrs: inlinehint nounwind uwtable
define internal i32 @Vec_IntSize(ptr noundef %0) #2 {
  %2 = alloca ptr, align 8
  store ptr %0, ptr %2, align 8, !tbaa !46
  %3 = load ptr, ptr %2, align 8, !tbaa !46
  %4 = getelementptr inbounds nuw %struct.Vec_Int_t_, ptr %3, i32 0, i32 1
  %5 = load i32, ptr %4, align 4, !tbaa !48
  ret i32 %5
}

; Function Attrs: inlinehint nounwind uwtable
define internal ptr @If_ManObj(ptr noundef %0, i32 noundef %1) #2 {
  %3 = alloca ptr, align 8
  %4 = alloca i32, align 4
  store ptr %0, ptr %3, align 8, !tbaa !3
  store i32 %1, ptr %4, align 4, !tbaa !23
  %5 = load ptr, ptr %3, align 8, !tbaa !3
  %6 = getelementptr inbounds nuw %struct.If_Man_t_, ptr %5, i32 0, i32 5
  %7 = load ptr, ptr %6, align 8, !tbaa !45
  %8 = load i32, ptr %4, align 4, !tbaa !23
  %9 = call ptr @Vec_PtrEntry(ptr noundef %7, i32 noundef %8)
  ret ptr %9
}

; Function Attrs: inlinehint nounwind uwtable
define internal ptr @If_ObjCutBest(ptr noundef %0) #2 {
  %2 = alloca ptr, align 8
  store ptr %0, ptr %2, align 8, !tbaa !8
  %3 = load ptr, ptr %2, align 8, !tbaa !8
  %4 = getelementptr inbounds nuw %struct.If_Obj_t_, ptr %3, i32 0, i32 14
  ret ptr %4
}

; Function Attrs: nounwind uwtable
define i32 @If_ManCheckShape(ptr noundef %0, ptr noundef %1, ptr noundef %2) #0 {
  %4 = alloca ptr, align 8
  %5 = alloca ptr, align 8
  %6 = alloca ptr, align 8
  %7 = alloca ptr, align 8
  %8 = alloca ptr, align 8
  %9 = alloca i32, align 4
  %10 = alloca i32, align 4
  %11 = alloca i32, align 4
  %12 = alloca i32, align 4
  store ptr %0, ptr %4, align 8, !tbaa !3
  store ptr %1, ptr %5, align 8, !tbaa !8
  store ptr %2, ptr %6, align 8, !tbaa !46
  call void @llvm.lifetime.start.p0(i64 8, ptr %7) #9
  call void @llvm.lifetime.start.p0(i64 8, ptr %8) #9
  call void @llvm.lifetime.start.p0(i64 4, ptr %9) #9
  call void @llvm.lifetime.start.p0(i64 4, ptr %10) #9
  call void @llvm.lifetime.start.p0(i64 4, ptr %11) #9
  call void @llvm.lifetime.start.p0(i64 4, ptr %12) #9
  store i32 1, ptr %12, align 4, !tbaa !23
  %13 = load ptr, ptr %5, align 8, !tbaa !8
  %14 = call ptr @If_ObjCutBest(ptr noundef %13)
  store ptr %14, ptr %7, align 8, !tbaa !12
  store i32 0, ptr %9, align 4, !tbaa !23
  br label %15

15:                                               ; preds = %37, %3
  %16 = load i32, ptr %9, align 4, !tbaa !23
  %17 = load ptr, ptr %7, align 8, !tbaa !12
  %18 = getelementptr inbounds nuw %struct.If_Cut_t_, ptr %17, i32 0, i32 7
  %19 = load i64, ptr %18, align 4
  %20 = lshr i64 %19, 24
  %21 = and i64 %20, 255
  %22 = trunc i64 %21 to i32
  %23 = icmp slt i32 %16, %22
  br i1 %23, label %24, label %34

24:                                               ; preds = %15
  %25 = load ptr, ptr %4, align 8, !tbaa !3
  %26 = load ptr, ptr %7, align 8, !tbaa !12
  %27 = getelementptr inbounds nuw %struct.If_Cut_t_, ptr %26, i32 0, i32 8
  %28 = load i32, ptr %9, align 4, !tbaa !23
  %29 = sext i32 %28 to i64
  %30 = getelementptr inbounds [0 x i32], ptr %27, i64 0, i64 %29
  %31 = load i32, ptr %30, align 4, !tbaa !23
  %32 = call ptr @If_ManObj(ptr noundef %25, i32 noundef %31)
  store ptr %32, ptr %8, align 8, !tbaa !8
  %33 = icmp ne ptr %32, null
  br label %34

34:                                               ; preds = %24, %15
  %35 = phi i1 [ false, %15 ], [ %33, %24 ]
  br i1 %35, label %36, label %40

36:                                               ; preds = %34
  br label %37

37:                                               ; preds = %36
  %38 = load i32, ptr %9, align 4, !tbaa !23
  %39 = add nsw i32 %38, 1
  store i32 %39, ptr %9, align 4, !tbaa !23
  br label %15, !llvm.loop !95

40:                                               ; preds = %34
  store i32 0, ptr %9, align 4, !tbaa !23
  br label %41

41:                                               ; preds = %74, %40
  %42 = load i32, ptr %9, align 4, !tbaa !23
  %43 = add nsw i32 %42, 1
  %44 = load ptr, ptr %6, align 8, !tbaa !46
  %45 = call i32 @Vec_IntSize(ptr noundef %44)
  %46 = icmp slt i32 %43, %45
  br i1 %46, label %47, label %56

47:                                               ; preds = %41
  %48 = load ptr, ptr %6, align 8, !tbaa !46
  %49 = load i32, ptr %9, align 4, !tbaa !23
  %50 = call i32 @Vec_IntEntry(ptr noundef %48, i32 noundef %49)
  store i32 %50, ptr %10, align 4, !tbaa !23
  br i1 true, label %51, label %56

51:                                               ; preds = %47
  %52 = load ptr, ptr %6, align 8, !tbaa !46
  %53 = load i32, ptr %9, align 4, !tbaa !23
  %54 = add nsw i32 %53, 1
  %55 = call i32 @Vec_IntEntry(ptr noundef %52, i32 noundef %54)
  store i32 %55, ptr %11, align 4, !tbaa !23
  br label %56

56:                                               ; preds = %51, %47, %41
  %57 = phi i1 [ false, %47 ], [ false, %41 ], [ true, %51 ]
  br i1 %57, label %58, label %77

58:                                               ; preds = %56
  %59 = load ptr, ptr %4, align 8, !tbaa !3
  %60 = load i32, ptr %11, align 4, !tbaa !23
  %61 = call ptr @If_ManObj(ptr noundef %59, i32 noundef %60)
  store ptr %61, ptr %8, align 8, !tbaa !8
  %62 = load ptr, ptr %8, align 8, !tbaa !8
  %63 = getelementptr inbounds nuw %struct.If_Obj_t_, ptr %62, i32 0, i32 6
  %64 = load ptr, ptr %63, align 8, !tbaa !20
  %65 = load i32, ptr %64, align 8
  %66 = and i32 %65, -257
  %67 = or i32 %66, 256
  store i32 %67, ptr %64, align 8
  %68 = load ptr, ptr %8, align 8, !tbaa !8
  %69 = getelementptr inbounds nuw %struct.If_Obj_t_, ptr %68, i32 0, i32 7
  %70 = load ptr, ptr %69, align 8, !tbaa !21
  %71 = load i32, ptr %70, align 8
  %72 = and i32 %71, -257
  %73 = or i32 %72, 256
  store i32 %73, ptr %70, align 8
  br label %74

74:                                               ; preds = %58
  %75 = load i32, ptr %9, align 4, !tbaa !23
  %76 = add nsw i32 %75, 2
  store i32 %76, ptr %9, align 4, !tbaa !23
  br label %41, !llvm.loop !96

77:                                               ; preds = %56
  store i32 0, ptr %9, align 4, !tbaa !23
  br label %78

78:                                               ; preds = %112, %77
  %79 = load i32, ptr %9, align 4, !tbaa !23
  %80 = load ptr, ptr %7, align 8, !tbaa !12
  %81 = getelementptr inbounds nuw %struct.If_Cut_t_, ptr %80, i32 0, i32 7
  %82 = load i64, ptr %81, align 4
  %83 = lshr i64 %82, 24
  %84 = and i64 %83, 255
  %85 = trunc i64 %84 to i32
  %86 = icmp slt i32 %79, %85
  br i1 %86, label %87, label %97

87:                                               ; preds = %78
  %88 = load ptr, ptr %4, align 8, !tbaa !3
  %89 = load ptr, ptr %7, align 8, !tbaa !12
  %90 = getelementptr inbounds nuw %struct.If_Cut_t_, ptr %89, i32 0, i32 8
  %91 = load i32, ptr %9, align 4, !tbaa !23
  %92 = sext i32 %91 to i64
  %93 = getelementptr inbounds [0 x i32], ptr %90, i64 0, i64 %92
  %94 = load i32, ptr %93, align 4, !tbaa !23
  %95 = call ptr @If_ManObj(ptr noundef %88, i32 noundef %94)
  store ptr %95, ptr %8, align 8, !tbaa !8
  %96 = icmp ne ptr %95, null
  br label %97

97:                                               ; preds = %87, %78
  %98 = phi i1 [ false, %78 ], [ %96, %87 ]
  br i1 %98, label %99, label %115

99:                                               ; preds = %97
  %100 = load ptr, ptr %8, align 8, !tbaa !8
  %101 = load i32, ptr %100, align 8
  %102 = lshr i32 %101, 8
  %103 = and i32 %102, 1
  %104 = icmp eq i32 %103, 0
  br i1 %104, label %105, label %106

105:                                              ; preds = %99
  store i32 0, ptr %12, align 4, !tbaa !23
  br label %111

106:                                              ; preds = %99
  %107 = load ptr, ptr %8, align 8, !tbaa !8
  %108 = load i32, ptr %107, align 8
  %109 = and i32 %108, -257
  %110 = or i32 %109, 0
  store i32 %110, ptr %107, align 8
  br label %111

111:                                              ; preds = %106, %105
  br label %112

112:                                              ; preds = %111
  %113 = load i32, ptr %9, align 4, !tbaa !23
  %114 = add nsw i32 %113, 1
  store i32 %114, ptr %9, align 4, !tbaa !23
  br label %78, !llvm.loop !97

115:                                              ; preds = %97
  store i32 0, ptr %9, align 4, !tbaa !23
  br label %116

116:                                              ; preds = %149, %115
  %117 = load i32, ptr %9, align 4, !tbaa !23
  %118 = add nsw i32 %117, 1
  %119 = load ptr, ptr %6, align 8, !tbaa !46
  %120 = call i32 @Vec_IntSize(ptr noundef %119)
  %121 = icmp slt i32 %118, %120
  br i1 %121, label %122, label %131

122:                                              ; preds = %116
  %123 = load ptr, ptr %6, align 8, !tbaa !46
  %124 = load i32, ptr %9, align 4, !tbaa !23
  %125 = call i32 @Vec_IntEntry(ptr noundef %123, i32 noundef %124)
  store i32 %125, ptr %10, align 4, !tbaa !23
  br i1 true, label %126, label %131

126:                                              ; preds = %122
  %127 = load ptr, ptr %6, align 8, !tbaa !46
  %128 = load i32, ptr %9, align 4, !tbaa !23
  %129 = add nsw i32 %128, 1
  %130 = call i32 @Vec_IntEntry(ptr noundef %127, i32 noundef %129)
  store i32 %130, ptr %11, align 4, !tbaa !23
  br label %131

131:                                              ; preds = %126, %122, %116
  %132 = phi i1 [ false, %122 ], [ false, %116 ], [ true, %126 ]
  br i1 %132, label %133, label %152

133:                                              ; preds = %131
  %134 = load ptr, ptr %4, align 8, !tbaa !3
  %135 = load i32, ptr %11, align 4, !tbaa !23
  %136 = call ptr @If_ManObj(ptr noundef %134, i32 noundef %135)
  store ptr %136, ptr %8, align 8, !tbaa !8
  %137 = load ptr, ptr %8, align 8, !tbaa !8
  %138 = getelementptr inbounds nuw %struct.If_Obj_t_, ptr %137, i32 0, i32 6
  %139 = load ptr, ptr %138, align 8, !tbaa !20
  %140 = load i32, ptr %139, align 8
  %141 = and i32 %140, -257
  %142 = or i32 %141, 0
  store i32 %142, ptr %139, align 8
  %143 = load ptr, ptr %8, align 8, !tbaa !8
  %144 = getelementptr inbounds nuw %struct.If_Obj_t_, ptr %143, i32 0, i32 7
  %145 = load ptr, ptr %144, align 8, !tbaa !21
  %146 = load i32, ptr %145, align 8
  %147 = and i32 %146, -257
  %148 = or i32 %147, 0
  store i32 %148, ptr %145, align 8
  br label %149

149:                                              ; preds = %133
  %150 = load i32, ptr %9, align 4, !tbaa !23
  %151 = add nsw i32 %150, 2
  store i32 %151, ptr %9, align 4, !tbaa !23
  br label %116, !llvm.loop !98

152:                                              ; preds = %131
  %153 = load i32, ptr %12, align 4, !tbaa !23
  call void @llvm.lifetime.end.p0(i64 4, ptr %12) #9
  call void @llvm.lifetime.end.p0(i64 4, ptr %11) #9
  call void @llvm.lifetime.end.p0(i64 4, ptr %10) #9
  call void @llvm.lifetime.end.p0(i64 4, ptr %9) #9
  call void @llvm.lifetime.end.p0(i64 8, ptr %8) #9
  call void @llvm.lifetime.end.p0(i64 8, ptr %7) #9
  ret i32 %153
}