; Function Attrs: nofree norecurse nosync nounwind memory(readwrite, inaccessiblemem: none) uwtable
define range(i32 0, 2) i32 @If_ManCheckShape(ptr noundef readonly captures(none) %0, ptr noundef readonly captures(none) %1, ptr noundef readonly captures(none) %2) local_unnamed_addr #5 {
.critedge:
  %3 = getelementptr inbounds nuw i8, ptr %1, i64 116
  %4 = getelementptr inbounds nuw i8, ptr %1, i64 108
  %5 = getelementptr i8, ptr %2, i64 4
  %.val5261 = load i32, ptr %5, align 4, !tbaa !40
  %6 = icmp sgt i32 %.val5261, 1
  br i1 %6, label %.lr.ph63, label %.critedge2.preheader

.lr.ph63:                                         ; preds = %.critedge
  %7 = getelementptr i8, ptr %2, i64 8
  %8 = getelementptr i8, ptr %0, i64 40
  br label %12

.critedge2.preheader:                             ; preds = %12, %.critedge
  %.val536883 = phi i32 [ %.val5261, %.critedge ], [ %.val52, %12 ]
  %9 = load i64, ptr %4, align 4
  %10 = and i64 %9, 4278190080
  %.not72 = icmp eq i64 %10, 0
  br i1 %.not72, label %.critedge4, label %.lr.ph66

.lr.ph66:                                         ; preds = %.critedge2.preheader
  %11 = getelementptr i8, ptr %0, i64 40
  br label %31

12:                                               ; preds = %.lr.ph63, %12
  %indvars.iv = phi i64 [ 0, %.lr.ph63 ], [ %indvars.iv.next, %12 ]
  %13 = or disjoint i64 %indvars.iv, 1
  %.val54 = load ptr, ptr %7, align 8, !tbaa !44
  %14 = getelementptr inbounds nuw i32, ptr %.val54, i64 %13
  %15 = load i32, ptr %14, align 4, !tbaa !3
  %.val50 = load ptr, ptr %8, align 8, !tbaa !38
  %16 = getelementptr i8, ptr %.val50, i64 8
  %.val50.val = load ptr, ptr %16, align 8, !tbaa !11
  %17 = sext i32 %15 to i64
  %18 = getelementptr inbounds ptr, ptr %.val50.val, i64 %17
  %19 = load ptr, ptr %18, align 8, !tbaa !12
  %20 = getelementptr inbounds nuw i8, ptr %19, i64 24
  %21 = load ptr, ptr %20, align 8, !tbaa !19
  %22 = load i32, ptr %21, align 8
  %23 = or i32 %22, 256
  store i32 %23, ptr %21, align 8
  %24 = getelementptr inbounds nuw i8, ptr %19, i64 32
  %25 = load ptr, ptr %24, align 8, !tbaa !20
  %26 = load i32, ptr %25, align 8
  %27 = or i32 %26, 256
  store i32 %27, ptr %25, align 8
  %indvars.iv.next = add nuw nsw i64 %indvars.iv, 2
  %28 = or disjoint i64 %indvars.iv.next, 1
  %.val52 = load i32, ptr %5, align 4, !tbaa !40
  %29 = sext i32 %.val52 to i64
  %30 = icmp slt i64 %28, %29
  br i1 %30, label %12, label %.critedge2.preheader, !llvm.loop !87

31:                                               ; preds = %.lr.ph66, %.critedge2
  %32 = phi i64 [ %9, %.lr.ph66 ], [ %45, %.critedge2 ]
  %indvars.iv75 = phi i64 [ 0, %.lr.ph66 ], [ %indvars.iv.next76, %.critedge2 ]
  %.065 = phi i32 [ 1, %.lr.ph66 ], [ %.1, %.critedge2 ]
  %33 = getelementptr inbounds nuw [0 x i32], ptr %3, i64 0, i64 %indvars.iv75
  %34 = load i32, ptr %33, align 4, !tbaa !3
  %.val49 = load ptr, ptr %11, align 8, !tbaa !38
  %35 = getelementptr i8, ptr %.val49, i64 8
  %.val49.val = load ptr, ptr %35, align 8, !tbaa !11
  %36 = sext i32 %34 to i64
  %37 = getelementptr inbounds ptr, ptr %.val49.val, i64 %36
  %38 = load ptr, ptr %37, align 8, !tbaa !12
  %.not48 = icmp eq ptr %38, null
  br i1 %.not48, label %.critedge4.loopexit, label %39

39:                                               ; preds = %31
  %40 = load i32, ptr %38, align 8
  %41 = and i32 %40, 256
  %42 = icmp eq i32 %41, 0
  br i1 %42, label %.critedge2, label %43

43:                                               ; preds = %39
  %44 = and i32 %40, -257
  store i32 %44, ptr %38, align 8
  %.pre81 = load i64, ptr %4, align 4
  br label %.critedge2

.critedge2:                                       ; preds = %39, %43
  %45 = phi i64 [ %.pre81, %43 ], [ %32, %39 ]
  %.1 = phi i32 [ %.065, %43 ], [ 0, %39 ]
  %indvars.iv.next76 = add nuw nsw i64 %indvars.iv75, 1
  %46 = lshr i64 %45, 24
  %47 = and i64 %46, 255
  %48 = icmp samesign ult i64 %indvars.iv.next76, %47
  br i1 %48, label %31, label %.critedge4.loopexit, !llvm.loop !88

.critedge4.loopexit:                              ; preds = %.critedge2, %31
  %.0.lcssa.ph = phi i32 [ %.065, %31 ], [ %.1, %.critedge2 ]
  %.val5368.pre = load i32, ptr %5, align 4, !tbaa !40
  br label %.critedge4

.critedge4:                                       ; preds = %.critedge4.loopexit, %.critedge2.preheader
  %.val5368 = phi i32 [ %.val536883, %.critedge2.preheader ], [ %.val5368.pre, %.critedge4.loopexit ]
  %.0.lcssa = phi i32 [ 1, %.critedge2.preheader ], [ %.0.lcssa.ph, %.critedge4.loopexit ]
  %49 = icmp sgt i32 %.val5368, 1
  br i1 %49, label %.lr.ph70, label %.critedge6

.lr.ph70:                                         ; preds = %.critedge4
  %50 = getelementptr i8, ptr %2, i64 8
  %51 = getelementptr i8, ptr %0, i64 40
  br label %52

52:                                               ; preds = %.lr.ph70, %52
  %indvars.iv78 = phi i64 [ 0, %.lr.ph70 ], [ %indvars.iv.next79, %52 ]
  %53 = or disjoint i64 %indvars.iv78, 1
  %.val56 = load ptr, ptr %50, align 8, !tbaa !44
  %54 = getelementptr inbounds nuw i32, ptr %.val56, i64 %53
  %55 = load i32, ptr %54, align 4, !tbaa !3
  %.val = load ptr, ptr %51, align 8, !tbaa !38
  %56 = getelementptr i8, ptr %.val, i64 8
  %.val.val = load ptr, ptr %56, align 8, !tbaa !11
  %57 = sext i32 %55 to i64
  %58 = getelementptr inbounds ptr, ptr %.val.val, i64 %57
  %59 = load ptr, ptr %58, align 8, !tbaa !12
  %60 = getelementptr inbounds nuw i8, ptr %59, i64 24
  %61 = load ptr, ptr %60, align 8, !tbaa !19
  %62 = load i32, ptr %61, align 8
  %63 = and i32 %62, -257
  store i32 %63, ptr %61, align 8
  %64 = getelementptr inbounds nuw i8, ptr %59, i64 32
  %65 = load ptr, ptr %64, align 8, !tbaa !20
  %66 = load i32, ptr %65, align 8
  %67 = and i32 %66, -257
  store i32 %67, ptr %65, align 8
  %indvars.iv.next79 = add nuw nsw i64 %indvars.iv78, 2
  %68 = or disjoint i64 %indvars.iv.next79, 1
  %.val53 = load i32, ptr %5, align 4, !tbaa !40
  %69 = sext i32 %.val53 to i64
  %70 = icmp slt i64 %68, %69
  br i1 %70, label %52, label %.critedge6, !llvm.loop !89

.critedge6:                                       ; preds = %52, %.critedge4
  ret i32 %.0.lcssa
}